Certificate:
    Data:
        Version: 3 (0x2)
        Serial Number: 1 (0x1)
        Signature Algorithm: sha1WithRSAEncryption
        Issuer: C=BA, ST=RS, L=Banja Luka, O=Elektrotehnicki fakultet, OU=ETF, CN=ROOTCA/emailAddress=root@mail.com
        Validity
            Not Before: Jan 15 18:07:31 2022 GMT
            Not After : Jan 15 18:07:31 2023 GMT
        Subject: C=BA, ST=RS, O=Elektrotehnicki fakultet, OU=ETF, CN=CA_TIJELO1/emailAddress=tijelo1@mail.com
        Subject Public Key Info:
            Public Key Algorithm: rsaEncryption
                RSA Public-Key: (4096 bit)
                Modulus:
                    00:aa:7e:38:20:45:bb:8f:00:32:75:75:0c:5f:46:
                    a9:a7:39:7e:bd:2e:3d:95:51:19:11:62:af:18:86:
                    32:0a:10:ad:49:47:32:23:a0:ad:a4:1c:89:67:92:
                    9a:64:98:99:94:d5:bb:71:31:0c:c2:75:14:a9:eb:
                    5e:63:e2:e7:15:43:67:6f:ff:d9:7a:ef:74:70:29:
                    30:7b:b1:1c:b9:28:fa:9f:8a:8e:17:36:52:55:41:
                    bd:89:ff:12:fe:80:94:d1:8f:48:53:fd:a7:70:70:
                    e4:1e:22:07:34:9d:00:89:0c:6f:56:1c:97:b7:a7:
                    c2:39:d1:cf:1d:a1:c5:5b:de:07:57:b2:8f:61:67:
                    dd:b0:b7:b5:fe:15:d7:91:52:70:3e:a9:37:d7:31:
                    eb:d6:82:cf:8d:3c:a2:68:c3:e4:6e:c0:9c:79:6a:
                    3b:9c:66:3b:cd:42:57:14:5c:29:f6:3a:20:ad:a1:
                    28:25:6a:d3:ec:6d:19:59:39:fa:a1:e5:16:10:bd:
                    f1:71:ec:d6:ac:21:30:3b:04:62:e8:24:2e:fc:78:
                    4a:c6:e6:05:a2:bd:46:3a:bc:30:0d:9b:45:aa:84:
                    b4:6d:0d:b5:4e:06:23:f4:ce:9e:b2:fc:bc:6a:af:
                    12:3e:eb:e3:90:16:0c:4d:88:7c:a3:39:b4:21:cd:
                    64:bb:3c:19:3c:52:d2:49:92:fb:90:62:0d:56:c7:
                    aa:2c:18:e9:af:96:ec:67:eb:aa:b7:e8:4a:7c:6b:
                    40:10:a0:af:80:72:f9:33:09:36:fc:16:b6:8d:ca:
                    7e:75:ee:ea:ee:df:43:8e:2c:5d:37:ff:c5:e6:b8:
                    20:23:7e:0b:76:3d:61:52:d0:e4:b1:c5:87:32:4e:
                    47:6e:df:71:6b:25:ce:52:ba:4c:84:f6:ef:eb:ad:
                    7c:43:0b:55:59:2f:91:4d:fd:75:fe:0c:63:b8:ca:
                    17:c1:01:63:b6:3a:8f:2a:05:5e:9f:30:3d:75:b3:
                    71:26:e3:dd:8c:1b:28:a3:89:84:5d:c0:e1:c9:94:
                    1e:3e:fc:46:14:7f:17:e8:ff:ad:b8:53:cf:f8:3e:
                    39:05:4f:58:05:20:40:a6:8a:ae:2e:fb:a4:fa:a1:
                    cc:f7:e9:2d:bb:45:53:cc:f2:60:24:bf:76:8a:bc:
                    6a:87:31:18:d2:8b:4a:a9:b1:2b:84:b3:12:c0:68:
                    18:6b:f3:16:6a:5b:e1:3b:4f:a9:83:be:65:fd:b2:
                    6f:2a:19:f4:d3:7e:ac:19:4b:c9:16:c8:b5:5f:2a:
                    48:09:40:6e:10:6e:74:67:19:e3:4c:f2:f4:f0:24:
                    57:9b:ac:a6:b3:88:6b:1a:c6:e4:6f:55:52:f7:ed:
                    7c:3f:b9
                Exponent: 65537 (0x10001)
        X509v3 extensions:
            X509v3 Basic Constraints: 
                CA:TRUE
            X509v3 Key Usage: 
                Digital Signature
            X509v3 Extended Key Usage: 
                TLS Web Client Authentication, TLS Web Server Authentication
            Netscape Comment: 
                OpenSSL Generated Certificate
            X509v3 Subject Key Identifier: 
                E4:ED:E0:27:06:8A:54:BF:60:DA:A6:A1:C1:43:7B:1E:EE:FF:51:82
            X509v3 Authority Key Identifier: 
                keyid:BF:F0:91:A4:00:4B:65:0E:AE:B8:91:05:D3:B7:1E:F3:F4:D1:AF:91

            X509v3 CRL Distribution Points: 

                Full Name:
                  URI:http://192.168.21.89/rootcrl.pem

    Signature Algorithm: sha1WithRSAEncryption
         15:e3:f8:92:1e:16:5e:42:65:3e:d7:c8:99:78:5a:62:df:f0:
         61:90:99:bb:36:6e:85:b6:d8:39:e6:a1:08:18:23:32:a6:4a:
         c3:de:86:15:86:1b:ed:0d:31:42:1a:64:09:f3:79:7a:4d:7d:
         a9:58:10:f3:ac:12:a6:6c:a3:03:96:fd:d1:b7:09:dd:99:4c:
         1f:c9:64:81:17:38:47:1f:44:46:22:88:05:ab:bc:12:2b:70:
         b0:08:13:b8:70:23:a7:52:06:b8:60:cd:61:1e:a3:8a:6e:95:
         32:f4:9b:e3:6a:94:1f:7f:e7:57:d5:e7:55:7e:9e:4a:e4:b7:
         82:c3:c7:02:d6:79:ad:7a:ba:0f:39:2a:d1:8e:ee:c1:c7:61:
         b2:37:92:34:7b:cc:e6:4a:8f:4a:fc:47:3a:e1:1a:25:d7:8c:
         4a:9a:02:a2:b2:a4:f4:79:75:53:15:82:14:ca:20:d8:94:13:
         aa:14:9f:ab:a9:1e:f8:6e:10:6d:2a:fd:9f:c3:2e:be:ac:e2:
         8b:dc:fb:1f:5f:f4:02:1a:62:69:08:91:7d:aa:76:3e:d3:ef:
         d5:8a:49:72:30:07:b6:22:d8:ee:e7:9d:6e:b5:8a:df:e7:71:
         dd:1f:84:62:10:83:cd:46:94:9c:bb:5b:f1:a2:ba:34:ae:7b:
         6b:64:4c:f4:52:e4:91:b7:08:18:f9:af:72:cc:20:43:af:e3:
         53:96:e1:5e:22:82:75:ce:0e:93:ed:0b:45:9d:63:4e:1b:84:
         fe:99:40:3f:b3:3d:44:d9:3e:b6:ec:f3:22:c5:0b:91:1e:53:
         fd:39:6b:b4:b5:35:9f:ea:aa:f3:90:2e:cf:50:49:22:19:d3:
         52:5f:a3:e1:f1:09:73:96:09:3a:8c:7c:c7:9b:e1:80:2c:e3:
         a2:6f:d9:4e:fb:d5:b9:4b:df:5a:27:97:61:02:91:c4:a2:49:
         d8:5e:59:c4:09:56:19:bd:b0:76:d4:16:ec:af:a6:27:05:cf:
         a4:99:b8:00:e2:40:fb:5e:fa:d4:f3:9a:8c:77:3a:0d:38:b7:
         c7:84:8f:94:93:98:94:23:d6:0e:a7:8e:b6:b8:c3:91:03:62:
         de:99:b4:8f:7f:13:0d:6e:5b:ad:c4:52:b3:be:ab:b0:10:c6:
         55:b6:a7:ab:48:ab:97:01:d1:c9:ec:89:5e:0d:a9:22:30:7c:
         ab:30:01:9f:49:69:ae:3a:a8:ad:a5:38:7b:f2:0e:40:33:40:
         cf:85:8d:50:d5:7b:b5:24:ea:7b:1d:f5:b6:cf:11:32:ec:0b:
         10:fa:fe:04:81:d6:cc:2c:bf:f7:b7:f4:11:c4:38:54:d8:aa:
         07:c3:74:45:77:d5:4e:b6
-----BEGIN CERTIFICATE-----
MIIGbDCCBFSgAwIBAgIBATANBgkqhkiG9w0BAQUFADCBjzELMAkGA1UEBhMCQkEx
CzAJBgNVBAgTAlJTMRMwEQYDVQQHEwpCYW5qYSBMdWthMSEwHwYDVQQKExhFbGVr
dHJvdGVobmlja2kgZmFrdWx0ZXQxDDAKBgNVBAsTA0VURjEPMA0GA1UEAxMGUk9P
VENBMRwwGgYJKoZIhvcNAQkBFg1yb290QG1haWwuY29tMB4XDTIyMDExNTE4MDcz
MVoXDTIzMDExNTE4MDczMVowgYExCzAJBgNVBAYTAkJBMQswCQYDVQQIEwJSUzEh
MB8GA1UEChMYRWxla3Ryb3RlaG5pY2tpIGZha3VsdGV0MQwwCgYDVQQLEwNFVEYx
EzARBgNVBAMUCkNBX1RJSkVMTzExHzAdBgkqhkiG9w0BCQEWEHRpamVsbzFAbWFp
bC5jb20wggIiMA0GCSqGSIb3DQEBAQUAA4ICDwAwggIKAoICAQCqfjggRbuPADJ1
dQxfRqmnOX69Lj2VURkRYq8YhjIKEK1JRzIjoK2kHIlnkppkmJmU1btxMQzCdRSp
615j4ucVQ2dv/9l673RwKTB7sRy5KPqfio4XNlJVQb2J/xL+gJTRj0hT/adwcOQe
Igc0nQCJDG9WHJe3p8I50c8docVb3gdXso9hZ92wt7X+FdeRUnA+qTfXMevWgs+N
PKJow+RuwJx5ajucZjvNQlcUXCn2OiCtoSglatPsbRlZOfqh5RYQvfFx7NasITA7
BGLoJC78eErG5gWivUY6vDANm0WqhLRtDbVOBiP0zp6y/LxqrxI+6+OQFgxNiHyj
ObQhzWS7PBk8UtJJkvuQYg1Wx6osGOmvluxn66q36Ep8a0AQoK+AcvkzCTb8FraN
yn517uru30OOLF03/8XmuCAjfgt2PWFS0OSxxYcyTkdu33FrJc5SukyE9u/rrXxD
C1VZL5FN/XX+DGO4yhfBAWO2Oo8qBV6fMD11s3Em492MGyijiYRdwOHJlB4+/EYU
fxfo/624U8/4PjkFT1gFIECmiq4u+6T6ocz36S27RVPM8mAkv3aKvGqHMRjSi0qp
sSuEsxLAaBhr8xZqW+E7T6mDvmX9sm8qGfTTfqwZS8kWyLVfKkgJQG4QbnRnGeNM
8vTwJFebrKaziGsaxuRvVVL37Xw/uQIDAQABo4HeMIHbMAwGA1UdEwQFMAMBAf8w
CwYDVR0PBAQDAgeAMB0GA1UdJQQWMBQGCCsGAQUFBwMCBggrBgEFBQcDATAsBglg
hkgBhvhCAQ0EHxYdT3BlblNTTCBHZW5lcmF0ZWQgQ2VydGlmaWNhdGUwHQYDVR0O
BBYEFOTt4CcGilS/YNqmocFDex7u/1GCMB8GA1UdIwQYMBaAFL/wkaQAS2UOrriR
BdO3HvP00a+RMDEGA1UdHwQqMCgwJqAkoCKGIGh0dHA6Ly8xOTIuMTY4LjIxLjg5
L3Jvb3RjcmwucGVtMA0GCSqGSIb3DQEBBQUAA4ICAQAV4/iSHhZeQmU+18iZeFpi
3/BhkJm7Nm6Fttg55qEIGCMypkrD3oYVhhvtDTFCGmQJ83l6TX2pWBDzrBKmbKMD
lv3RtwndmUwfyWSBFzhHH0RGIogFq7wSK3CwCBO4cCOnUga4YM1hHqOKbpUy9Jvj
apQff+dX1edVfp5K5LeCw8cC1nmteroPOSrRju7Bx2GyN5I0e8zmSo9K/Ec64Rol
14xKmgKisqT0eXVTFYIUyiDYlBOqFJ+rqR74bhBtKv2fwy6+rOKL3PsfX/QCGmJp
CJF9qnY+0+/ViklyMAe2Itju551utYrf53HdH4RiEIPNRpScu1vxoro0rntrZEz0
UuSRtwgY+a9yzCBDr+NTluFeIoJ1zg6T7QtFnWNOG4T+mUA/sz1E2T627PMixQuR
HlP9OWu0tTWf6qrzkC7PUEkiGdNSX6Ph8Qlzlgk6jHzHm+GALOOib9lO+9W5S99a
J5dhApHEoknYXlnECVYZvbB21Bbsr6YnBc+kmbgA4kD7XvrU85qMdzoNOLfHhI+U
k5iUI9YOp462uMORA2LembSPfxMNblutxFKzvquwEMZVtqerSKuXAdHJ7IleDaki
MHyrMAGfSWmuOqitpTh78g5AM0DPhY1Q1Xu1JOp7HfW2zxEy7AsQ+v4EgdbMLL/3
t/QRxDhU2KoHw3RFd9VOtg==
-----END CERTIFICATE-----
