Certificate:
    Data:
        Version: 3 (0x2)
        Serial Number: 2 (0x2)
        Signature Algorithm: sha1WithRSAEncryption
        Issuer: C=BA, ST=RS, L=Banja Luka, O=Elektrotehnicki fakultet, OU=ETF, CN=ROOTCA/emailAddress=root@mail.com
        Validity
            Not Before: Jan 15 18:07:59 2022 GMT
            Not After : Jan 15 18:07:59 2023 GMT
        Subject: C=BA, ST=RS, O=Elektrotehnicki fakultet, OU=ETF, CN=CA_TIJELO2/emailAddress=tijelo2@mail.com
        Subject Public Key Info:
            Public Key Algorithm: rsaEncryption
                RSA Public-Key: (4096 bit)
                Modulus:
                    00:b7:d4:b9:52:14:ef:93:e3:dc:aa:3b:a4:a7:a1:
                    a7:60:e2:03:41:84:54:e2:43:78:2d:73:e5:06:28:
                    bf:1b:b6:c4:92:8f:b2:c0:34:66:ec:49:18:59:f1:
                    35:18:cc:e3:d5:5e:55:96:5a:86:f2:d5:21:b2:30:
                    31:11:cc:4d:da:4d:f3:7d:5b:7a:74:86:39:7a:de:
                    00:12:69:a5:b0:61:51:08:4e:79:56:02:9d:fc:83:
                    53:b3:0a:4a:88:ad:17:07:db:eb:f4:7d:26:bf:5f:
                    c4:88:5f:58:7e:41:19:b1:ce:1c:38:47:e6:1d:7c:
                    35:a0:53:dd:5b:14:cb:38:b2:e5:67:d1:85:9b:94:
                    49:6f:a8:0c:0d:3b:cf:06:59:f2:40:80:c3:8a:5a:
                    ab:22:4e:e1:a4:f8:29:ab:3e:70:e9:58:a0:7d:e7:
                    54:80:62:61:c8:d0:53:74:e9:90:df:6c:12:f4:32:
                    2a:ec:45:3c:ad:85:63:a5:b4:ba:b3:01:de:8b:25:
                    b1:81:87:e5:e5:7f:86:db:93:a9:d6:e9:13:fa:ae:
                    72:15:81:86:bc:f6:03:f6:ab:86:a8:5f:07:e3:f6:
                    5c:3a:31:92:b7:dd:12:ae:34:9c:87:0f:41:cf:cd:
                    62:18:e2:b8:c1:da:09:35:87:1c:51:f7:2d:b5:0b:
                    a1:05:1f:31:72:b2:c3:f7:c8:e4:ad:bc:25:82:e2:
                    9a:77:c0:00:b2:e3:00:16:28:e4:3c:f3:cd:47:87:
                    48:b3:ca:65:fd:56:f1:38:64:a5:f0:16:ea:cd:25:
                    24:b1:d0:55:fd:27:ac:3a:65:50:be:78:eb:65:05:
                    a4:da:e3:1d:27:72:3f:2d:c1:1e:08:71:13:a9:3f:
                    d0:c7:8c:28:44:6a:97:c9:01:2f:b1:9b:04:90:46:
                    b7:4b:50:4b:ef:98:15:d6:25:ff:5e:5d:c3:f1:8f:
                    d6:72:e6:95:0f:a4:ac:2a:8d:a3:42:a7:92:19:4c:
                    b6:aa:d2:4d:34:bb:c5:28:87:8d:ad:51:cb:28:f3:
                    b2:90:da:9b:f4:a6:e6:fa:24:5c:33:65:cd:64:32:
                    ba:f6:e7:3d:78:02:f3:35:bb:81:29:9a:17:f4:03:
                    d2:13:02:85:49:2b:2f:6a:a8:ad:db:d4:0e:45:de:
                    1a:a7:26:40:15:c2:a6:2d:58:a2:e4:69:6a:0a:cc:
                    54:bd:71:c1:c9:bd:3d:dd:25:d2:39:d2:4d:5f:55:
                    36:1b:d5:33:ca:6f:26:93:ce:0f:5c:77:43:5e:d7:
                    e4:73:1d:3a:82:09:c6:01:0b:4c:5d:65:fb:62:5b:
                    0c:97:c4:2a:6f:17:26:db:eb:27:43:a5:d1:65:89:
                    fe:49:79
                Exponent: 65537 (0x10001)
        X509v3 extensions:
            X509v3 Basic Constraints: 
                CA:TRUE
            X509v3 Key Usage: 
                Digital Signature
            X509v3 Extended Key Usage: 
                TLS Web Client Authentication, TLS Web Server Authentication
            Netscape Comment: 
                OpenSSL Generated Certificate
            X509v3 Subject Key Identifier: 
                16:09:AB:A6:93:BE:58:6C:04:C4:D8:DD:3F:51:9E:E3:9D:E5:26:B1
            X509v3 Authority Key Identifier: 
                keyid:BF:F0:91:A4:00:4B:65:0E:AE:B8:91:05:D3:B7:1E:F3:F4:D1:AF:91

            X509v3 CRL Distribution Points: 

                Full Name:
                  URI:http://192.168.21.89/rootcrl.pem

    Signature Algorithm: sha1WithRSAEncryption
         34:02:92:41:05:86:5c:1b:a8:38:33:f4:16:9b:98:99:40:c3:
         cf:60:86:5a:a3:90:fe:55:4c:38:88:b7:19:c0:59:f4:03:43:
         14:8f:e5:0b:ed:b4:76:1e:43:69:cc:df:ad:40:2c:49:b7:ee:
         40:d3:ec:bd:17:ad:8d:87:4f:83:3b:a8:df:fb:ee:30:e5:61:
         ab:91:94:c9:f9:6d:ba:c5:70:93:4a:71:85:6a:de:f0:3f:e0:
         b4:8e:ba:23:b3:6a:ed:1b:83:23:2d:3a:52:fa:4c:c7:46:9d:
         42:fe:f0:38:39:14:7c:10:6a:9c:a2:9f:fe:c3:9a:d5:d2:df:
         a2:e8:24:c1:10:1b:ea:b7:10:5a:ae:d7:1c:5c:34:11:74:16:
         41:79:f8:82:23:0a:53:20:1c:b2:35:e5:35:ed:f8:24:29:13:
         9f:7b:ca:ed:ad:21:c7:0c:51:8d:c1:49:be:9b:45:6d:88:6f:
         49:45:fb:9d:9c:84:2f:e3:9a:48:49:69:e9:47:91:75:a0:5f:
         c2:f3:d7:c1:57:20:0a:c7:f2:cd:e7:2c:4e:48:53:f8:62:e0:
         87:ce:e0:64:4a:3c:b6:a6:33:f7:a3:e8:5f:5d:44:f6:52:39:
         35:df:2d:17:73:92:cf:ae:c1:6a:97:28:46:f1:45:14:15:be:
         6e:8a:aa:39:28:f0:05:a2:b6:44:6a:8c:6b:df:98:d2:49:a4:
         b8:ac:95:07:07:c1:17:63:a9:a2:9a:8b:66:3f:ae:49:3c:b8:
         0e:53:6c:46:59:6f:a1:c6:fb:96:c8:66:8c:9c:06:ca:89:1b:
         b8:47:ae:1b:fc:ce:3a:b6:8b:1f:81:34:62:e0:e6:37:31:e3:
         66:47:98:ee:c2:3e:b9:be:1c:f8:bc:a7:64:23:e6:d4:55:9a:
         e4:2a:a7:d1:86:5c:80:9d:06:b2:7e:71:d8:aa:c3:79:90:25:
         af:9d:22:60:aa:8b:01:80:26:c1:e5:c4:08:20:b1:7f:77:9e:
         85:22:5e:fd:5b:1e:54:24:85:93:b1:4e:e5:d1:fa:46:9c:e9:
         ab:e5:98:26:b2:1c:79:bd:d4:8e:63:79:3a:e9:54:d9:00:a8:
         1e:af:b1:46:78:78:63:73:05:26:64:72:e3:2e:80:e5:f3:a7:
         3a:2b:8d:a1:88:87:db:46:30:87:e1:0e:b2:4a:b8:bf:13:75:
         a5:52:21:7f:19:91:f6:8c:47:46:a1:31:5f:f2:f7:ec:25:4e:
         85:37:03:9e:50:09:fc:f4:df:0a:4e:e3:88:05:c5:07:c3:d0:
         87:f3:ee:b1:54:e2:fa:54:9a:cf:46:4f:bf:bf:49:09:2f:55:
         f3:d0:a6:04:b8:64:4d:9c
-----BEGIN CERTIFICATE-----
MIIGbDCCBFSgAwIBAgIBAjANBgkqhkiG9w0BAQUFADCBjzELMAkGA1UEBhMCQkEx
CzAJBgNVBAgTAlJTMRMwEQYDVQQHEwpCYW5qYSBMdWthMSEwHwYDVQQKExhFbGVr
dHJvdGVobmlja2kgZmFrdWx0ZXQxDDAKBgNVBAsTA0VURjEPMA0GA1UEAxMGUk9P
VENBMRwwGgYJKoZIhvcNAQkBFg1yb290QG1haWwuY29tMB4XDTIyMDExNTE4MDc1
OVoXDTIzMDExNTE4MDc1OVowgYExCzAJBgNVBAYTAkJBMQswCQYDVQQIEwJSUzEh
MB8GA1UEChMYRWxla3Ryb3RlaG5pY2tpIGZha3VsdGV0MQwwCgYDVQQLEwNFVEYx
EzARBgNVBAMUCkNBX1RJSkVMTzIxHzAdBgkqhkiG9w0BCQEWEHRpamVsbzJAbWFp
bC5jb20wggIiMA0GCSqGSIb3DQEBAQUAA4ICDwAwggIKAoICAQC31LlSFO+T49yq
O6Snoadg4gNBhFTiQ3gtc+UGKL8btsSSj7LANGbsSRhZ8TUYzOPVXlWWWoby1SGy
MDERzE3aTfN9W3p0hjl63gASaaWwYVEITnlWAp38g1OzCkqIrRcH2+v0fSa/X8SI
X1h+QRmxzhw4R+YdfDWgU91bFMs4suVn0YWblElvqAwNO88GWfJAgMOKWqsiTuGk
+CmrPnDpWKB951SAYmHI0FN06ZDfbBL0MirsRTythWOltLqzAd6LJbGBh+Xlf4bb
k6nW6RP6rnIVgYa89gP2q4aoXwfj9lw6MZK33RKuNJyHD0HPzWIY4rjB2gk1hxxR
9y21C6EFHzFyssP3yOStvCWC4pp3wACy4wAWKOQ8881Hh0izymX9VvE4ZKXwFurN
JSSx0FX9J6w6ZVC+eOtlBaTa4x0ncj8twR4IcROpP9DHjChEapfJAS+xmwSQRrdL
UEvvmBXWJf9eXcPxj9Zy5pUPpKwqjaNCp5IZTLaq0k00u8Uoh42tUcso87KQ2pv0
pub6JFwzZc1kMrr25z14AvM1u4Epmhf0A9ITAoVJKy9qqK3b1A5F3hqnJkAVwqYt
WKLkaWoKzFS9ccHJvT3dJdI50k1fVTYb1TPKbyaTzg9cd0Ne1+RzHTqCCcYBC0xd
ZftiWwyXxCpvFybb6ydDpdFlif5JeQIDAQABo4HeMIHbMAwGA1UdEwQFMAMBAf8w
CwYDVR0PBAQDAgeAMB0GA1UdJQQWMBQGCCsGAQUFBwMCBggrBgEFBQcDATAsBglg
hkgBhvhCAQ0EHxYdT3BlblNTTCBHZW5lcmF0ZWQgQ2VydGlmaWNhdGUwHQYDVR0O
BBYEFBYJq6aTvlhsBMTY3T9RnuOd5SaxMB8GA1UdIwQYMBaAFL/wkaQAS2UOrriR
BdO3HvP00a+RMDEGA1UdHwQqMCgwJqAkoCKGIGh0dHA6Ly8xOTIuMTY4LjIxLjg5
L3Jvb3RjcmwucGVtMA0GCSqGSIb3DQEBBQUAA4ICAQA0ApJBBYZcG6g4M/QWm5iZ
QMPPYIZao5D+VUw4iLcZwFn0A0MUj+UL7bR2HkNpzN+tQCxJt+5A0+y9F62Nh0+D
O6jf++4w5WGrkZTJ+W26xXCTSnGFat7wP+C0jrojs2rtG4MjLTpS+kzHRp1C/vA4
ORR8EGqcop/+w5rV0t+i6CTBEBvqtxBartccXDQRdBZBefiCIwpTIByyNeU17fgk
KROfe8rtrSHHDFGNwUm+m0VtiG9JRfudnIQv45pISWnpR5F1oF/C89fBVyAKx/LN
5yxOSFP4YuCHzuBkSjy2pjP3o+hfXUT2Ujk13y0Xc5LPrsFqlyhG8UUUFb5uiqo5
KPAForZEaoxr35jSSaS4rJUHB8EXY6mimotmP65JPLgOU2xGWW+hxvuWyGaMnAbK
iRu4R64b/M46tosfgTRi4OY3MeNmR5juwj65vhz4vKdkI+bUVZrkKqfRhlyAnQay
fnHYqsN5kCWvnSJgqosBgCbB5cQIILF/d56FIl79Wx5UJIWTsU7l0fpGnOmr5Zgm
shx5vdSOY3k66VTZAKger7FGeHhjcwUmZHLjLoDl86c6K42hiIfbRjCH4Q6ySri/
E3WlUiF/GZH2jEdGoTFf8vfsJU6FNwOeUAn89N8KTuOIBcUHw9CH8+6xVOL6VJrP
Rk+/v0kJL1Xz0KYEuGRNnA==
-----END CERTIFICATE-----
